target datalayout = "e-m:e-p270:32:32-p271:32:32-p272:64:64-i64:64-i128:128-f80:128-n8:16:32:64-S128"
target triple = "x86_64-pc-linux-gnu"

%struct.SSIMDSPContext = type { ptr, ptr }
%struct.ThreadData = type { [4 x ptr], [4 x ptr], [4 x i32], [4 x i32], [4 x i32], [4 x i32], ptr, ptr, i32, i32, ptr }

; Function Attrs: nounwind uwtable
define internal i32 @ssim_plane(ptr noundef %0, ptr noundef %1, i32 noundef %2, i32 noundef %3) #0 {
  %5 = alloca ptr, align 8
  %6 = alloca ptr, align 8
  %7 = alloca i32, align 4
  %8 = alloca i32, align 4
  %9 = alloca ptr, align 8
  %10 = alloca ptr, align 8
  %11 = alloca ptr, align 8
  %12 = alloca ptr, align 8
  %13 = alloca i32, align 4
  %14 = alloca i32, align 4
  %15 = alloca ptr, align 8
  %16 = alloca ptr, align 8
  %17 = alloca i32, align 4
  %18 = alloca i32, align 4
  %19 = alloca i32, align 4
  %20 = alloca i32, align 4
  %21 = alloca i32, align 4
  %22 = alloca i32, align 4
  %23 = alloca i32, align 4
  %24 = alloca i32, align 4
  %25 = alloca double, align 8
  %26 = alloca ptr, align 8
  %27 = alloca ptr, align 8
  %28 = alloca i32, align 4
  %29 = alloca ptr, align 8
  store ptr %0, ptr %5, align 8, !tbaa !4
  store ptr %1, ptr %6, align 8, !tbaa !84
  store i32 %2, ptr %7, align 4, !tbaa !37
  store i32 %3, ptr %8, align 4, !tbaa !37
  call void @llvm.lifetime.start.p0(i64 8, ptr %9) #12
  %30 = load ptr, ptr %6, align 8, !tbaa !84
  store ptr %30, ptr %9, align 8, !tbaa !85
  call void @llvm.lifetime.start.p0(i64 8, ptr %10) #12
  %31 = load ptr, ptr %9, align 8, !tbaa !85
  %32 = getelementptr inbounds nuw %struct.ThreadData, ptr %31, i32 0, i32 6
  %33 = load ptr, ptr %32, align 8, !tbaa !87
  %34 = load i32, ptr %7, align 4, !tbaa !37
  %35 = sext i32 %34 to i64
  %36 = getelementptr inbounds ptr, ptr %33, i64 %35
  %37 = load ptr, ptr %36, align 8, !tbaa !82
  store ptr %37, ptr %10, align 8, !tbaa !82
  call void @llvm.lifetime.start.p0(i64 8, ptr %11) #12
  %38 = load ptr, ptr %9, align 8, !tbaa !85
  %39 = getelementptr inbounds nuw %struct.ThreadData, ptr %38, i32 0, i32 7
  %40 = load ptr, ptr %39, align 8, !tbaa !90
  %41 = load i32, ptr %7, align 4, !tbaa !37
  %42 = sext i32 %41 to i64
  %43 = getelementptr inbounds ptr, ptr %40, i64 %42
  %44 = load ptr, ptr %43, align 8, !tbaa !75
  store ptr %44, ptr %11, align 8, !tbaa !84
  call void @llvm.lifetime.start.p0(i64 8, ptr %12) #12
  %45 = load ptr, ptr %9, align 8, !tbaa !85
  %46 = getelementptr inbounds nuw %struct.ThreadData, ptr %45, i32 0, i32 10
  %47 = load ptr, ptr %46, align 8, !tbaa !99
  store ptr %47, ptr %12, align 8, !tbaa !100
  call void @llvm.lifetime.start.p0(i64 4, ptr %13) #12
  store i32 0, ptr %13, align 4, !tbaa !37
  br label %48

48:                                               ; preds = %189, %4
  %49 = load i32, ptr %13, align 4, !tbaa !37
  %50 = load ptr, ptr %9, align 8, !tbaa !85
  %51 = getelementptr inbounds nuw %struct.ThreadData, ptr %50, i32 0, i32 8
  %52 = load i32, ptr %51, align 8, !tbaa !92
  %53 = icmp slt i32 %49, %52
  br i1 %53, label %55, label %54

54:                                               ; preds = %48
  store i32 2, ptr %14, align 4
  call void @llvm.lifetime.end.p0(i64 4, ptr %13) #12
  br label %192

55:                                               ; preds = %48
  call void @llvm.lifetime.start.p0(i64 8, ptr %15) #12
  %56 = load ptr, ptr %9, align 8, !tbaa !85
  %57 = getelementptr inbounds nuw %struct.ThreadData, ptr %56, i32 0, i32 0
  %58 = load i32, ptr %13, align 4, !tbaa !37
  %59 = sext i32 %58 to i64
  %60 = getelementptr inbounds [4 x ptr], ptr %57, i64 0, i64 %59
  %61 = load ptr, ptr %60, align 8, !tbaa !93
  store ptr %61, ptr %15, align 8, !tbaa !93
  call void @llvm.lifetime.start.p0(i64 8, ptr %16) #12
  %62 = load ptr, ptr %9, align 8, !tbaa !85
  %63 = getelementptr inbounds nuw %struct.ThreadData, ptr %62, i32 0, i32 1
  %64 = load i32, ptr %13, align 4, !tbaa !37
  %65 = sext i32 %64 to i64
  %66 = getelementptr inbounds [4 x ptr], ptr %63, i64 0, i64 %65
  %67 = load ptr, ptr %66, align 8, !tbaa !93
  store ptr %67, ptr %16, align 8, !tbaa !93
  call void @llvm.lifetime.start.p0(i64 4, ptr %17) #12
  %68 = load ptr, ptr %9, align 8, !tbaa !85
  %69 = getelementptr inbounds nuw %struct.ThreadData, ptr %68, i32 0, i32 2
  %70 = load i32, ptr %13, align 4, !tbaa !37
  %71 = sext i32 %70 to i64
  %72 = getelementptr inbounds [4 x i32], ptr %69, i64 0, i64 %71
  %73 = load i32, ptr %72, align 4, !tbaa !37
  store i32 %73, ptr %17, align 4, !tbaa !37
  call void @llvm.lifetime.start.p0(i64 4, ptr %18) #12
  %74 = load ptr, ptr %9, align 8, !tbaa !85
  %75 = getelementptr inbounds nuw %struct.ThreadData, ptr %74, i32 0, i32 3
  %76 = load i32, ptr %13, align 4, !tbaa !37
  %77 = sext i32 %76 to i64
  %78 = getelementptr inbounds [4 x i32], ptr %75, i64 0, i64 %77
  %79 = load i32, ptr %78, align 4, !tbaa !37
  store i32 %79, ptr %18, align 4, !tbaa !37
  call void @llvm.lifetime.start.p0(i64 4, ptr %19) #12
  %80 = load ptr, ptr %9, align 8, !tbaa !85
  %81 = getelementptr inbounds nuw %struct.ThreadData, ptr %80, i32 0, i32 4
  %82 = load i32, ptr %13, align 4, !tbaa !37
  %83 = sext i32 %82 to i64
  %84 = getelementptr inbounds [4 x i32], ptr %81, i64 0, i64 %83
  %85 = load i32, ptr %84, align 4, !tbaa !37
  store i32 %85, ptr %19, align 4, !tbaa !37
  call void @llvm.lifetime.start.p0(i64 4, ptr %20) #12
  %86 = load ptr, ptr %9, align 8, !tbaa !85
  %87 = getelementptr inbounds nuw %struct.ThreadData, ptr %86, i32 0, i32 5
  %88 = load i32, ptr %13, align 4, !tbaa !37
  %89 = sext i32 %88 to i64
  %90 = getelementptr inbounds [4 x i32], ptr %87, i64 0, i64 %89
  %91 = load i32, ptr %90, align 4, !tbaa !37
  store i32 %91, ptr %20, align 4, !tbaa !37
  call void @llvm.lifetime.start.p0(i64 4, ptr %21) #12
  %92 = load i32, ptr %20, align 4, !tbaa !37
  %93 = ashr i32 %92, 2
  %94 = load i32, ptr %7, align 4, !tbaa !37
  %95 = mul nsw i32 %93, %94
  %96 = load i32, ptr %8, align 4, !tbaa !37
  %97 = sdiv i32 %95, %96
  store i32 %97, ptr %21, align 4, !tbaa !37
  call void @llvm.lifetime.start.p0(i64 4, ptr %22) #12
  %98 = load i32, ptr %20, align 4, !tbaa !37
  %99 = ashr i32 %98, 2
  %100 = load i32, ptr %7, align 4, !tbaa !37
  %101 = add nsw i32 %100, 1
  %102 = mul nsw i32 %99, %101
  %103 = load i32, ptr %8, align 4, !tbaa !37
  %104 = sdiv i32 %102, %103
  store i32 %104, ptr %22, align 4, !tbaa !37
  call void @llvm.lifetime.start.p0(i64 4, ptr %23) #12
  %105 = load i32, ptr %21, align 4, !tbaa !37
  %106 = icmp sgt i32 1, %105
  br i1 %106, label %107, label %108

107:                                              ; preds = %55
  br label %110

108:                                              ; preds = %55
  %109 = load i32, ptr %21, align 4, !tbaa !37
  br label %110

110:                                              ; preds = %108, %107
  %111 = phi i32 [ 1, %107 ], [ %109, %108 ]
  store i32 %111, ptr %23, align 4, !tbaa !37
  call void @llvm.lifetime.start.p0(i64 4, ptr %24) #12
  %112 = load i32, ptr %23, align 4, !tbaa !37
  %113 = sub nsw i32 %112, 1
  store i32 %113, ptr %24, align 4, !tbaa !37
  call void @llvm.lifetime.start.p0(i64 8, ptr %25) #12
  store double 0.000000e+00, ptr %25, align 8, !tbaa !43
  call void @llvm.lifetime.start.p0(i64 8, ptr %26) #12
  %114 = load ptr, ptr %11, align 8, !tbaa !84
  store ptr %114, ptr %26, align 8, !tbaa !75
  call void @llvm.lifetime.start.p0(i64 8, ptr %27) #12
  %115 = load ptr, ptr %26, align 8, !tbaa !75
  %116 = load i32, ptr %19, align 4, !tbaa !37
  %117 = ashr i32 %116, 2
  %118 = add nsw i32 %117, 3
  %119 = sext i32 %118 to i64
  %120 = getelementptr inbounds [4 x i32], ptr %115, i64 %119
  store ptr %120, ptr %27, align 8, !tbaa !75
  %121 = load i32, ptr %19, align 4, !tbaa !37
  %122 = ashr i32 %121, 2
  store i32 %122, ptr %19, align 4, !tbaa !37
  %123 = load i32, ptr %20, align 4, !tbaa !37
  %124 = ashr i32 %123, 2
  store i32 %124, ptr %20, align 4, !tbaa !37
  call void @llvm.lifetime.start.p0(i64 4, ptr %28) #12
  %125 = load i32, ptr %23, align 4, !tbaa !37
  store i32 %125, ptr %28, align 4, !tbaa !37
  br label %126

126:                                              ; preds = %180, %110
  %127 = load i32, ptr %28, align 4, !tbaa !37
  %128 = load i32, ptr %22, align 4, !tbaa !37
  %129 = icmp slt i32 %127, %128
  br i1 %129, label %131, label %130

130:                                              ; preds = %126
  store i32 5, ptr %14, align 4
  call void @llvm.lifetime.end.p0(i64 4, ptr %28) #12
  br label %183

131:                                              ; preds = %126
  br label %132

132:                                              ; preds = %166, %131
  %133 = load i32, ptr %24, align 4, !tbaa !37
  %134 = load i32, ptr %28, align 4, !tbaa !37
  %135 = icmp sle i32 %133, %134
  br i1 %135, label %136, label %169

136:                                              ; preds = %132
  br label %137

137:                                              ; preds = %136
  call void @llvm.lifetime.start.p0(i64 8, ptr %29) #12
  %138 = load ptr, ptr %27, align 8, !tbaa !75
  store ptr %138, ptr %29, align 8, !tbaa !84
  %139 = load ptr, ptr %26, align 8, !tbaa !75
  store ptr %139, ptr %27, align 8, !tbaa !75
  %140 = load ptr, ptr %29, align 8, !tbaa !84
  store ptr %140, ptr %26, align 8, !tbaa !75
  call void @llvm.lifetime.end.p0(i64 8, ptr %29) #12
  br label %141

141:                                              ; preds = %137
  br label %142

142:                                              ; preds = %141
  %143 = load ptr, ptr %12, align 8, !tbaa !100
  %144 = getelementptr inbounds nuw %struct.SSIMDSPContext, ptr %143, i32 0, i32 0
  %145 = load ptr, ptr %144, align 8, !tbaa !101
  %146 = load ptr, ptr %15, align 8, !tbaa !93
  %147 = load i32, ptr %24, align 4, !tbaa !37
  %148 = mul nsw i32 4, %147
  %149 = load i32, ptr %17, align 4, !tbaa !37
  %150 = mul nsw i32 %148, %149
  %151 = sext i32 %150 to i64
  %152 = getelementptr inbounds i8, ptr %146, i64 %151
  %153 = load i32, ptr %17, align 4, !tbaa !37
  %154 = sext i32 %153 to i64
  %155 = load ptr, ptr %16, align 8, !tbaa !93
  %156 = load i32, ptr %24, align 4, !tbaa !37
  %157 = mul nsw i32 4, %156
  %158 = load i32, ptr %18, align 4, !tbaa !37
  %159 = mul nsw i32 %157, %158
  %160 = sext i32 %159 to i64
  %161 = getelementptr inbounds i8, ptr %155, i64 %160
  %162 = load i32, ptr %18, align 4, !tbaa !37
  %163 = sext i32 %162 to i64
  %164 = load ptr, ptr %26, align 8, !tbaa !75
  %165 = load i32, ptr %19, align 4, !tbaa !37
  call void %145(ptr noundef %152, i64 noundef %154, ptr noundef %161, i64 noundef %163, ptr noundef %164, i32 noundef %165)
  br label %166

166:                                              ; preds = %142
  %167 = load i32, ptr %24, align 4, !tbaa !37
  %168 = add nsw i32 %167, 1
  store i32 %168, ptr %24, align 4, !tbaa !37
  br label %132, !llvm.loop !102

169:                                              ; preds = %132
  %170 = load ptr, ptr %12, align 8, !tbaa !100
  %171 = getelementptr inbounds nuw %struct.SSIMDSPContext, ptr %170, i32 0, i32 1
  %172 = load ptr, ptr %171, align 8, !tbaa !103
  %173 = load ptr, ptr %26, align 8, !tbaa !75
  %174 = load ptr, ptr %27, align 8, !tbaa !75
  %175 = load i32, ptr %19, align 4, !tbaa !37
  %176 = sub nsw i32 %175, 1
  %177 = call nsz double %172(ptr noundef %173, ptr noundef %174, i32 noundef %176)
  %178 = load double, ptr %25, align 8, !tbaa !43
  %179 = fadd nsz double %178, %177
  store double %179, ptr %25, align 8, !tbaa !43
  br label %180

180:                                              ; preds = %169
  %181 = load i32, ptr %28, align 4, !tbaa !37
  %182 = add nsw i32 %181, 1
  store i32 %182, ptr %28, align 4, !tbaa !37
  br label %126, !llvm.loop !104

183:                                              ; preds = %130
  %184 = load double, ptr %25, align 8, !tbaa !43
  %185 = load ptr, ptr %10, align 8, !tbaa !82
  %186 = load i32, ptr %13, align 4, !tbaa !37
  %187 = sext i32 %186 to i64
  %188 = getelementptr inbounds double, ptr %185, i64 %187
  store double %184, ptr %188, align 8, !tbaa !43
  call void @llvm.lifetime.end.p0(i64 8, ptr %27) #12
  call void @llvm.lifetime.end.p0(i64 8, ptr %26) #12
  call void @llvm.lifetime.end.p0(i64 8, ptr %25) #12
  call void @llvm.lifetime.end.p0(i64 4, ptr %24) #12
  call void @llvm.lifetime.end.p0(i64 4, ptr %23) #12
  call void @llvm.lifetime.end.p0(i64 4, ptr %22) #12
  call void @llvm.lifetime.end.p0(i64 4, ptr %21) #12
  call void @llvm.lifetime.end.p0(i64 4, ptr %20) #12
  call void @llvm.lifetime.end.p0(i64 4, ptr %19) #12
  call void @llvm.lifetime.end.p0(i64 4, ptr %18) #12
  call void @llvm.lifetime.end.p0(i64 4, ptr %17) #12
  call void @llvm.lifetime.end.p0(i64 8, ptr %16) #12
  call void @llvm.lifetime.end.p0(i64 8, ptr %15) #12
  br label %189

189:                                              ; preds = %183
  %190 = load i32, ptr %13, align 4, !tbaa !37
  %191 = add nsw i32 %190, 1
  store i32 %191, ptr %13, align 4, !tbaa !37
  br label %48, !llvm.loop !105

192:                                              ; preds = %54
  store i32 1, ptr %14, align 4
  call void @llvm.lifetime.end.p0(i64 8, ptr %12) #12
  call void @llvm.lifetime.end.p0(i64 8, ptr %11) #12
  call void @llvm.lifetime.end.p0(i64 8, ptr %10) #12
  call void @llvm.lifetime.end.p0(i64 8, ptr %9) #12
  ret i32 0
}