; Function Attrs: nounwind uwtable
define internal noundef i32 @ssim_plane(ptr readnone captures(none) %0, ptr noundef readonly captures(none) %1, i32 noundef %2, i32 noundef %3) #0 {
  %5 = getelementptr inbounds nuw i8, ptr %1, i64 128
  %6 = load ptr, ptr %5, align 8, !tbaa !79
  %7 = sext i32 %2 to i64
  %8 = getelementptr inbounds ptr, ptr %6, i64 %7
  %9 = load ptr, ptr %8, align 8, !tbaa !78
  %10 = getelementptr inbounds nuw i8, ptr %1, i64 136
  %11 = load ptr, ptr %10, align 8, !tbaa !82
  %12 = getelementptr inbounds ptr, ptr %11, i64 %7
  %13 = load ptr, ptr %12, align 8, !tbaa !71
  %14 = getelementptr inbounds nuw i8, ptr %1, i64 152
  %15 = load ptr, ptr %14, align 8, !tbaa !96
  %16 = getelementptr inbounds nuw i8, ptr %1, i64 144
  %invariant.gep = getelementptr i8, ptr %13, i64 48
  %17 = load i32, ptr %16, align 8, !tbaa !83
  %18 = icmp sgt i32 %17, 0
  br i1 %18, label %.lr.ph85, label %._crit_edge86

.lr.ph85:                                         ; preds = %4
  %19 = getelementptr inbounds nuw i8, ptr %1, i64 32
  %20 = getelementptr inbounds nuw i8, ptr %1, i64 64
  %21 = getelementptr inbounds nuw i8, ptr %1, i64 80
  %22 = getelementptr inbounds nuw i8, ptr %1, i64 96
  %23 = getelementptr inbounds nuw i8, ptr %1, i64 112
  %24 = add nsw i32 %2, 1
  %25 = getelementptr inbounds nuw i8, ptr %15, i64 8
  br label %26

._crit_edge86:                                    ; preds = %._crit_edge81, %4
  ret i32 0

26:                                               ; preds = %.lr.ph85, %._crit_edge81
  %27 = phi i32 [ %17, %.lr.ph85 ], [ %54, %._crit_edge81 ]
  %indvars.iv92 = phi i64 [ 0, %.lr.ph85 ], [ %indvars.iv.next93, %._crit_edge81 ]
  %28 = getelementptr inbounds nuw [4 x ptr], ptr %1, i64 0, i64 %indvars.iv92
  %29 = load ptr, ptr %28, align 8, !tbaa !85
  %30 = getelementptr inbounds nuw [4 x ptr], ptr %19, i64 0, i64 %indvars.iv92
  %31 = load ptr, ptr %30, align 8, !tbaa !85
  %32 = getelementptr inbounds nuw [4 x i32], ptr %22, i64 0, i64 %indvars.iv92
  %33 = load i32, ptr %32, align 4, !tbaa !34
  %34 = getelementptr inbounds nuw [4 x i32], ptr %23, i64 0, i64 %indvars.iv92
  %35 = load i32, ptr %34, align 4, !tbaa !34
  %36 = ashr i32 %35, 2
  %37 = mul nsw i32 %36, %2
  %38 = sdiv i32 %37, %3
  %39 = mul nsw i32 %36, %24
  %40 = sdiv i32 %39, %3
  %41 = tail call i32 @llvm.smax.i32(i32 %38, i32 1)
  %42 = ashr i32 %33, 2
  %43 = icmp slt i32 %41, %40
  br i1 %43, label %.preheader.lr.ph, label %._crit_edge81

.preheader.lr.ph:                                 ; preds = %26
  %44 = getelementptr inbounds nuw [4 x i32], ptr %21, i64 0, i64 %indvars.iv92
  %45 = load i32, ptr %44, align 4, !tbaa !34
  %46 = getelementptr inbounds nuw [4 x i32], ptr %20, i64 0, i64 %indvars.iv92
  %47 = load i32, ptr %46, align 4, !tbaa !34
  %48 = sext i32 %42 to i64
  %gep = getelementptr [4 x i32], ptr %invariant.gep, i64 %48
  %49 = add nsw i32 %41, -1
  %50 = sext i32 %47 to i64
  %51 = sext i32 %45 to i64
  %52 = add nsw i32 %42, -1
  br label %.preheader

.preheader:                                       ; preds = %.preheader.lr.ph, %._crit_edge
  %indvars.iv89.in = phi i32 [ %41, %.preheader.lr.ph ], [ %indvars.iv89, %._crit_edge ]
  %.06380 = phi i32 [ %41, %.preheader.lr.ph ], [ %67, %._crit_edge ]
  %.06479 = phi ptr [ %gep, %.preheader.lr.ph ], [ %.1.lcssa, %._crit_edge ]
  %.06578 = phi ptr [ %13, %.preheader.lr.ph ], [ %.166.lcssa, %._crit_edge ]
  %.06777 = phi double [ 0.000000e+00, %.preheader.lr.ph ], [ %66, %._crit_edge ]
  %.06876 = phi i32 [ %49, %.preheader.lr.ph ], [ %.169.lcssa, %._crit_edge ]
  %indvars.iv89 = add i32 %indvars.iv89.in, 1
  %.not70 = icmp sgt i32 %.06876, %.06380
  br i1 %.not70, label %._crit_edge, label %.lr.ph.preheader

.lr.ph.preheader:                                 ; preds = %.preheader
  %53 = sext i32 %.06876 to i64
  br label %.lr.ph

._crit_edge81.loopexit:                           ; preds = %._crit_edge
  %.pre = load i32, ptr %16, align 8, !tbaa !83
  br label %._crit_edge81

._crit_edge81:                                    ; preds = %._crit_edge81.loopexit, %26
  %54 = phi i32 [ %27, %26 ], [ %.pre, %._crit_edge81.loopexit ]
  %.067.lcssa = phi double [ 0.000000e+00, %26 ], [ %66, %._crit_edge81.loopexit ]
  %55 = getelementptr inbounds nuw double, ptr %9, i64 %indvars.iv92
  store double %.067.lcssa, ptr %55, align 8, !tbaa !41
  %indvars.iv.next93 = add nuw nsw i64 %indvars.iv92, 1
  %56 = sext i32 %54 to i64
  %57 = icmp slt i64 %indvars.iv.next93, %56
  br i1 %57, label %26, label %._crit_edge86, !llvm.loop !97

.lr.ph:                                           ; preds = %.lr.ph.preheader, %.lr.ph
  %indvars.iv = phi i64 [ %53, %.lr.ph.preheader ], [ %indvars.iv.next, %.lr.ph ]
  %.173 = phi ptr [ %.06479, %.lr.ph.preheader ], [ %.16672, %.lr.ph ]
  %.16672 = phi ptr [ %.06578, %.lr.ph.preheader ], [ %.173, %.lr.ph ]
  %58 = load ptr, ptr %15, align 8, !tbaa !98
  %59 = shl nsw i64 %indvars.iv, 2
  %60 = mul nsw i64 %59, %50
  %61 = getelementptr inbounds i8, ptr %29, i64 %60
  %62 = mul nsw i64 %59, %51
  %63 = getelementptr inbounds i8, ptr %31, i64 %62
  tail call void %58(ptr noundef %61, i64 noundef %50, ptr noundef %63, i64 noundef %51, ptr noundef %.173, i32 noundef %42) #14
  %indvars.iv.next = add nsw i64 %indvars.iv, 1
  %lftr.wideiv = trunc i64 %indvars.iv.next to i32
  %exitcond.not = icmp eq i32 %indvars.iv89, %lftr.wideiv
  br i1 %exitcond.not, label %._crit_edge, label %.lr.ph, !llvm.loop !99

._crit_edge:                                      ; preds = %.lr.ph, %.preheader
  %.169.lcssa = phi i32 [ %.06876, %.preheader ], [ %indvars.iv89, %.lr.ph ]
  %.166.lcssa = phi ptr [ %.06578, %.preheader ], [ %.173, %.lr.ph ]
  %.1.lcssa = phi ptr [ %.06479, %.preheader ], [ %.16672, %.lr.ph ]
  %64 = load ptr, ptr %25, align 8, !tbaa !100
  %65 = tail call nsz double %64(ptr noundef %.166.lcssa, ptr noundef %.1.lcssa, i32 noundef %52) #14
  %66 = fadd nsz double %.06777, %65
  %67 = add nuw nsw i32 %.06380, 1
  %exitcond91.not = icmp eq i32 %67, %40
  br i1 %exitcond91.not, label %._crit_edge81.loopexit, label %.preheader, !llvm.loop !101
}